; Function Attrs: mustprogress nofree norecurse nosync nounwind memory(readwrite, inaccessiblemem: none) uwtable
define hidden void @_ZN3sat4prob16init_best_valuesEv(ptr nocapture noundef nonnull readonly align 8 dereferenceable(816) %this) local_unnamed_addr #9 align 2 {
entry:
  %m_values = getelementptr inbounds i8, ptr %this, i64 656
  %m_best_values = getelementptr inbounds i8, ptr %this, i64 664
  br label %for.cond

for.cond:                                         ; preds = %for.body, %entry
  %indvars.iv = phi i64 [ %indvars.iv.next, %for.body ], [ 0, %entry ]
  %0 = load ptr, ptr %m_values, align 8
  %cmp.i = icmp eq ptr %0, null
  br i1 %cmp.i, label %_ZNK6vectorIbLb0EjE4sizeEv.exit, label %if.end.i

if.end.i:                                         ; preds = %for.cond
  %arrayidx.i = getelementptr inbounds i8, ptr %0, i64 -4
  %1 = load i32, ptr %arrayidx.i, align 4
  br label %_ZNK6vectorIbLb0EjE4sizeEv.exit

_ZNK6vectorIbLb0EjE4sizeEv.exit:                  ; preds = %for.cond, %if.end.i
  %retval.0.i = phi i32 [ %1, %if.end.i ], [ 0, %for.cond ]
  %2 = zext i32 %retval.0.i to i64
  %cmp = icmp ult i64 %indvars.iv, %2
  br i1 %cmp, label %for.body, label %for.end

for.body:                                         ; preds = %_ZNK6vectorIbLb0EjE4sizeEv.exit
  %3 = load ptr, ptr %m_best_values, align 8
  %arrayidx.i4 = getelementptr inbounds i8, ptr %3, i64 %indvars.iv
  %4 = load i8, ptr %arrayidx.i4, align 1
  %5 = and i8 %4, 1
  %arrayidx.i6 = getelementptr inbounds i8, ptr %0, i64 %indvars.iv
  store i8 %5, ptr %arrayidx.i6, align 1
  %indvars.iv.next = add nuw nsw i64 %indvars.iv, 1
  br label %for.cond, !llvm.loop !23

for.end:                                          ; preds = %_ZNK6vectorIbLb0EjE4sizeEv.exit
  ret void
}